; Function Attrs: mustprogress uwtable
define noundef double @_ZNK8QuantLib15FixedRateCoupon13accruedAmountERKNS_4DateE(ptr noundef nonnull align 8 dereferenceable(136) %this, ptr noundef nonnull align 8 dereferenceable(8) %d) unnamed_addr #8 align 2 {
entry:
  %accrualStartDate_ = getelementptr inbounds nuw i8, ptr %this, i64 40
  %0 = load i64, ptr %d, align 8, !tbaa !51
  %1 = load i64, ptr %accrualStartDate_, align 8, !tbaa !51
  %cmp.i = icmp sle i64 %0, %1
  %paymentDate_ = getelementptr inbounds nuw i8, ptr %this, i64 24
  %2 = load i64, ptr %paymentDate_, align 8
  %cmp.i6 = icmp sgt i64 %0, %2
  %or.cond = select i1 %cmp.i, i1 true, i1 %cmp.i6
  br i1 %or.cond, label %return, label %if.else

if.else:                                          ; preds = %entry
  %call3 = tail call noundef zeroext i1 @_ZNK8QuantLib8CashFlow15tradingExCouponERKNS_4DateE(ptr noundef nonnull align 8 dereferenceable(20) %this, ptr noundef nonnull align 8 dereferenceable(8) %d)
  %vtable = load ptr, ptr %this, align 8, !tbaa !33
  %vfn = getelementptr inbounds i8, ptr %vtable, i64 64
  %3 = load ptr, ptr %vfn, align 8
  %call5 = tail call noundef double %3(ptr noundef nonnull align 8 dereferenceable(88) %this)
  %4 = load i64, ptr %d, align 8, !tbaa !51
  br i1 %call3, label %if.then4, label %if.else8

if.then4:                                         ; preds = %if.else
  %fneg = fneg double %call5
  %rate_ = getelementptr inbounds nuw i8, ptr %this, i64 88
  %accrualEndDate_ = getelementptr inbounds nuw i8, ptr %this, i64 48
  %5 = load i64, ptr %accrualEndDate_, align 8, !tbaa !51
  %cmp.i.i = icmp slt i64 %4, %5
  %__b.__a.i = select i1 %cmp.i.i, ptr %accrualEndDate_, ptr %d
  %refPeriodStart_ = getelementptr inbounds nuw i8, ptr %this, i64 56
  %refPeriodEnd_ = getelementptr inbounds nuw i8, ptr %this, i64 64
  %call7 = tail call noundef double @_ZNK8QuantLib12InterestRate14compoundFactorERKNS_4DateES3_S3_S3_(ptr noundef nonnull align 8 dereferenceable(40) %rate_, ptr noundef nonnull align 8 dereferenceable(8) %d, ptr noundef nonnull align 8 dereferenceable(8) %__b.__a.i, ptr noundef nonnull align 8 dereferenceable(8) %refPeriodStart_, ptr noundef nonnull align 8 dereferenceable(8) %refPeriodEnd_)
  %sub = fadd double %call7, -1.000000e+00
  %mul = fmul double %sub, %fneg
  br label %return

if.else8:                                         ; preds = %if.else
  %rate_12 = getelementptr inbounds nuw i8, ptr %this, i64 88
  %accrualEndDate_14 = getelementptr inbounds nuw i8, ptr %this, i64 48
  %6 = load i64, ptr %accrualEndDate_14, align 8, !tbaa !51
  %cmp.i.i7 = icmp slt i64 %6, %4
  %__b.__a.i8 = select i1 %cmp.i.i7, ptr %accrualEndDate_14, ptr %d
  %refPeriodStart_16 = getelementptr inbounds nuw i8, ptr %this, i64 56
  %refPeriodEnd_17 = getelementptr inbounds nuw i8, ptr %this, i64 64
  %call18 = tail call noundef double @_ZNK8QuantLib12InterestRate14compoundFactorERKNS_4DateES3_S3_S3_(ptr noundef nonnull align 8 dereferenceable(40) %rate_12, ptr noundef nonnull align 8 dereferenceable(8) %accrualStartDate_, ptr noundef nonnull align 8 dereferenceable(8) %__b.__a.i8, ptr noundef nonnull align 8 dereferenceable(8) %refPeriodStart_16, ptr noundef nonnull align 8 dereferenceable(8) %refPeriodEnd_17)
  %sub19 = fadd double %call18, -1.000000e+00
  %mul20 = fmul double %call5, %sub19
  br label %return

return:                                           ; preds = %entry, %if.else8, %if.then4
  %retval.0 = phi double [ %mul, %if.then4 ], [ %mul20, %if.else8 ], [ 0.000000e+00, %entry ]
  ret double %retval.0
}